target datalayout = "e-m:e-p270:32:32-p271:32:32-p272:64:64-i64:64-i128:128-f80:128-n8:16:32:64-S128"
target triple = "x86_64-pc-linux-gnu"

%struct.lzma_index_coder = type { i32, ptr, %struct.lzma_index_iter, i64, i32 }
%struct.lzma_index_iter = type { %struct.anon, %struct.anon.0, [6 x %union.anon] }
%struct.anon = type { ptr, ptr, ptr, ptr, i64, i64, i64, i64, i64, i64, i64, i64, i64, i64, i64 }
%struct.anon.0 = type { i64, i64, i64, i64, i64, i64, i64, i64, i64, i64, i64, i64, i64, ptr, ptr, ptr, ptr }
%union.anon = type { ptr }

; Function Attrs: nounwind uwtable
define internal i32 @index_encode(ptr noundef %0, ptr noundef %1, ptr noalias noundef %2, ptr noalias noundef %3, i64 noundef %4, ptr noalias noundef %5, ptr noalias noundef %6, i64 noundef %7, i32 noundef %8) #0 {
  %10 = alloca i32, align 4
  %11 = alloca ptr, align 8
  %12 = alloca ptr, align 8
  %13 = alloca ptr, align 8
  %14 = alloca ptr, align 8
  %15 = alloca i64, align 8
  %16 = alloca ptr, align 8
  %17 = alloca ptr, align 8
  %18 = alloca i64, align 8
  %19 = alloca i32, align 4
  %20 = alloca ptr, align 8
  %21 = alloca i64, align 8
  %22 = alloca i32, align 4
  %23 = alloca i64, align 8
  %24 = alloca i32, align 4
  %25 = alloca i64, align 8
  %26 = alloca i64, align 8
  store ptr %0, ptr %11, align 8, !tbaa !9
  store ptr %1, ptr %12, align 8, !tbaa !9
  store ptr %2, ptr %13, align 8, !tbaa !18
  store ptr %3, ptr %14, align 8, !tbaa !20
  store i64 %4, ptr %15, align 8, !tbaa !22
  store ptr %5, ptr %16, align 8, !tbaa !18
  store ptr %6, ptr %17, align 8, !tbaa !20
  store i64 %7, ptr %18, align 8, !tbaa !22
  store i32 %8, ptr %19, align 4, !tbaa !23
  call void @llvm.lifetime.start.p0(i64 8, ptr %20) #5
  %27 = load ptr, ptr %11, align 8, !tbaa !9
  store ptr %27, ptr %20, align 8, !tbaa !9
  call void @llvm.lifetime.start.p0(i64 8, ptr %21) #5
  %28 = load ptr, ptr %17, align 8, !tbaa !20
  %29 = load i64, ptr %28, align 8, !tbaa !22
  store i64 %29, ptr %21, align 8, !tbaa !22
  call void @llvm.lifetime.start.p0(i64 4, ptr %22) #5
  store i32 0, ptr %22, align 4, !tbaa !23
  br label %30

30:                                               ; preds = %192, %9
  %31 = load ptr, ptr %17, align 8, !tbaa !20
  %32 = load i64, ptr %31, align 8, !tbaa !22
  %33 = load i64, ptr %18, align 8, !tbaa !22
  %34 = icmp ult i64 %32, %33
  br i1 %34, label %35, label %193

35:                                               ; preds = %30
  %36 = load ptr, ptr %20, align 8, !tbaa !9
  %37 = getelementptr inbounds nuw %struct.lzma_index_coder, ptr %36, i32 0, i32 0
  %38 = load i32, ptr %37, align 8, !tbaa !25
  switch i32 %38, label %191 [
    i32 0, label %39
    i32 1, label %49
    i32 4, label %71
    i32 2, label %89
    i32 3, label %89
    i32 5, label %127
    i32 6, label %158
  ]

39:                                               ; preds = %35
  %40 = load ptr, ptr %16, align 8, !tbaa !18
  %41 = load ptr, ptr %17, align 8, !tbaa !20
  %42 = load i64, ptr %41, align 8, !tbaa !22
  %43 = getelementptr inbounds nuw i8, ptr %40, i64 %42
  store i8 0, ptr %43, align 1, !tbaa !30
  %44 = load ptr, ptr %17, align 8, !tbaa !20
  %45 = load i64, ptr %44, align 8, !tbaa !22
  %46 = add i64 %45, 1
  store i64 %46, ptr %44, align 8, !tbaa !22
  %47 = load ptr, ptr %20, align 8, !tbaa !9
  %48 = getelementptr inbounds nuw %struct.lzma_index_coder, ptr %47, i32 0, i32 0
  store i32 1, ptr %48, align 8, !tbaa !25
  br label %192

49:                                               ; preds = %35
  call void @llvm.lifetime.start.p0(i64 8, ptr %23) #5
  %50 = load ptr, ptr %20, align 8, !tbaa !9
  %51 = getelementptr inbounds nuw %struct.lzma_index_coder, ptr %50, i32 0, i32 1
  %52 = load ptr, ptr %51, align 8, !tbaa !31
  %53 = call i64 @lzma_index_block_count(ptr noundef %52) #6
  store i64 %53, ptr %23, align 8, !tbaa !22
  %54 = load i64, ptr %23, align 8, !tbaa !22
  %55 = load ptr, ptr %20, align 8, !tbaa !9
  %56 = getelementptr inbounds nuw %struct.lzma_index_coder, ptr %55, i32 0, i32 3
  %57 = load ptr, ptr %16, align 8, !tbaa !18
  %58 = load ptr, ptr %17, align 8, !tbaa !20
  %59 = load i64, ptr %18, align 8, !tbaa !22
  %60 = call i32 @lzma_vli_encode(i64 noundef %54, ptr noundef %56, ptr noundef %57, ptr noundef %58, i64 noundef %59) #5
  store i32 %60, ptr %22, align 4, !tbaa !23
  %61 = load i32, ptr %22, align 4, !tbaa !23
  %62 = icmp ne i32 %61, 1
  br i1 %62, label %63, label %64

63:                                               ; preds = %49
  store i32 5, ptr %24, align 4
  br label %69

64:                                               ; preds = %49
  store i32 0, ptr %22, align 4, !tbaa !23
  %65 = load ptr, ptr %20, align 8, !tbaa !9
  %66 = getelementptr inbounds nuw %struct.lzma_index_coder, ptr %65, i32 0, i32 3
  store i64 0, ptr %66, align 8, !tbaa !32
  %67 = load ptr, ptr %20, align 8, !tbaa !9
  %68 = getelementptr inbounds nuw %struct.lzma_index_coder, ptr %67, i32 0, i32 0
  store i32 4, ptr %68, align 8, !tbaa !25
  store i32 4, ptr %24, align 4
  br label %69

69:                                               ; preds = %63, %64
  call void @llvm.lifetime.end.p0(i64 8, ptr %23) #5
  %70 = load i32, ptr %24, align 4
  switch i32 %70, label %214 [
    i32 4, label %192
    i32 5, label %194
  ]

71:                                               ; preds = %35
  %72 = load ptr, ptr %20, align 8, !tbaa !9
  %73 = getelementptr inbounds nuw %struct.lzma_index_coder, ptr %72, i32 0, i32 2
  %74 = call zeroext i8 @lzma_index_iter_next(ptr noundef %73, i32 noundef 2) #5
  %75 = icmp ne i8 %74, 0
  br i1 %75, label %76, label %86

76:                                               ; preds = %71
  %77 = load ptr, ptr %20, align 8, !tbaa !9
  %78 = getelementptr inbounds nuw %struct.lzma_index_coder, ptr %77, i32 0, i32 1
  %79 = load ptr, ptr %78, align 8, !tbaa !31
  %80 = call i32 @lzma_index_padding_size(ptr noundef %79)
  %81 = zext i32 %80 to i64
  %82 = load ptr, ptr %20, align 8, !tbaa !9
  %83 = getelementptr inbounds nuw %struct.lzma_index_coder, ptr %82, i32 0, i32 3
  store i64 %81, ptr %83, align 8, !tbaa !32
  %84 = load ptr, ptr %20, align 8, !tbaa !9
  %85 = getelementptr inbounds nuw %struct.lzma_index_coder, ptr %84, i32 0, i32 0
  store i32 5, ptr %85, align 8, !tbaa !25
  br label %192

86:                                               ; preds = %71
  %87 = load ptr, ptr %20, align 8, !tbaa !9
  %88 = getelementptr inbounds nuw %struct.lzma_index_coder, ptr %87, i32 0, i32 0
  store i32 2, ptr %88, align 8, !tbaa !25
  br label %89

89:                                               ; preds = %35, %35, %86
  call void @llvm.lifetime.start.p0(i64 8, ptr %25) #5
  %90 = load ptr, ptr %20, align 8, !tbaa !9
  %91 = getelementptr inbounds nuw %struct.lzma_index_coder, ptr %90, i32 0, i32 0
  %92 = load i32, ptr %91, align 8, !tbaa !25
  %93 = icmp eq i32 %92, 2
  br i1 %93, label %94, label %100

94:                                               ; preds = %89
  %95 = load ptr, ptr %20, align 8, !tbaa !9
  %96 = getelementptr inbounds nuw %struct.lzma_index_coder, ptr %95, i32 0, i32 2
  %97 = getelementptr inbounds nuw %struct.lzma_index_iter, ptr %96, i32 0, i32 1
  %98 = getelementptr inbounds nuw %struct.anon.0, ptr %97, i32 0, i32 7
  %99 = load i64, ptr %98, align 8, !tbaa !33
  br label %106

100:                                              ; preds = %89
  %101 = load ptr, ptr %20, align 8, !tbaa !9
  %102 = getelementptr inbounds nuw %struct.lzma_index_coder, ptr %101, i32 0, i32 2
  %103 = getelementptr inbounds nuw %struct.lzma_index_iter, ptr %102, i32 0, i32 1
  %104 = getelementptr inbounds nuw %struct.anon.0, ptr %103, i32 0, i32 6
  %105 = load i64, ptr %104, align 8, !tbaa !34
  br label %106

106:                                              ; preds = %100, %94
  %107 = phi i64 [ %99, %94 ], [ %105, %100 ]
  store i64 %107, ptr %25, align 8, !tbaa !22
  %108 = load i64, ptr %25, align 8, !tbaa !22
  %109 = load ptr, ptr %20, align 8, !tbaa !9
  %110 = getelementptr inbounds nuw %struct.lzma_index_coder, ptr %109, i32 0, i32 3
  %111 = load ptr, ptr %16, align 8, !tbaa !18
  %112 = load ptr, ptr %17, align 8, !tbaa !20
  %113 = load i64, ptr %18, align 8, !tbaa !22
  %114 = call i32 @lzma_vli_encode(i64 noundef %108, ptr noundef %110, ptr noundef %111, ptr noundef %112, i64 noundef %113) #5
  store i32 %114, ptr %22, align 4, !tbaa !23
  %115 = load i32, ptr %22, align 4, !tbaa !23
  %116 = icmp ne i32 %115, 1
  br i1 %116, label %117, label %118

117:                                              ; preds = %106
  store i32 5, ptr %24, align 4
  br label %125

118:                                              ; preds = %106
  store i32 0, ptr %22, align 4, !tbaa !23
  %119 = load ptr, ptr %20, align 8, !tbaa !9
  %120 = getelementptr inbounds nuw %struct.lzma_index_coder, ptr %119, i32 0, i32 3
  store i64 0, ptr %120, align 8, !tbaa !32
  %121 = load ptr, ptr %20, align 8, !tbaa !9
  %122 = getelementptr inbounds nuw %struct.lzma_index_coder, ptr %121, i32 0, i32 0
  %123 = load i32, ptr %122, align 8, !tbaa !25
  %124 = add i32 %123, 1
  store i32 %124, ptr %122, align 8, !tbaa !25
  store i32 4, ptr %24, align 4
  br label %125

125:                                              ; preds = %117, %118
  call void @llvm.lifetime.end.p0(i64 8, ptr %25) #5
  %126 = load i32, ptr %24, align 4
  switch i32 %126, label %214 [
    i32 4, label %192
    i32 5, label %194
  ]

127:                                              ; preds = %35
  %128 = load ptr, ptr %20, align 8, !tbaa !9
  %129 = getelementptr inbounds nuw %struct.lzma_index_coder, ptr %128, i32 0, i32 3
  %130 = load i64, ptr %129, align 8, !tbaa !32
  %131 = icmp ugt i64 %130, 0
  br i1 %131, label %132, label %142

132:                                              ; preds = %127
  %133 = load ptr, ptr %20, align 8, !tbaa !9
  %134 = getelementptr inbounds nuw %struct.lzma_index_coder, ptr %133, i32 0, i32 3
  %135 = load i64, ptr %134, align 8, !tbaa !32
  %136 = add i64 %135, -1
  store i64 %136, ptr %134, align 8, !tbaa !32
  %137 = load ptr, ptr %16, align 8, !tbaa !18
  %138 = load ptr, ptr %17, align 8, !tbaa !20
  %139 = load i64, ptr %138, align 8, !tbaa !22
  %140 = add i64 %139, 1
  store i64 %140, ptr %138, align 8, !tbaa !22
  %141 = getelementptr inbounds nuw i8, ptr %137, i64 %139
  store i8 0, ptr %141, align 1, !tbaa !30
  br label %192

142:                                              ; preds = %127
  %143 = load ptr, ptr %16, align 8, !tbaa !18
  %144 = load i64, ptr %21, align 8, !tbaa !22
  %145 = getelementptr inbounds nuw i8, ptr %143, i64 %144
  %146 = load ptr, ptr %17, align 8, !tbaa !20
  %147 = load i64, ptr %146, align 8, !tbaa !22
  %148 = load i64, ptr %21, align 8, !tbaa !22
  %149 = sub i64 %147, %148
  %150 = load ptr, ptr %20, align 8, !tbaa !9
  %151 = getelementptr inbounds nuw %struct.lzma_index_coder, ptr %150, i32 0, i32 4
  %152 = load i32, ptr %151, align 8, !tbaa !35
  %153 = call i32 @lzma_crc32(ptr noundef %145, i64 noundef %149, i32 noundef %152) #6
  %154 = load ptr, ptr %20, align 8, !tbaa !9
  %155 = getelementptr inbounds nuw %struct.lzma_index_coder, ptr %154, i32 0, i32 4
  store i32 %153, ptr %155, align 8, !tbaa !35
  %156 = load ptr, ptr %20, align 8, !tbaa !9
  %157 = getelementptr inbounds nuw %struct.lzma_index_coder, ptr %156, i32 0, i32 0
  store i32 6, ptr %157, align 8, !tbaa !25
  br label %158

158:                                              ; preds = %35, %142
  br label %159

159:                                              ; preds = %184, %158
  %160 = load ptr, ptr %17, align 8, !tbaa !20
  %161 = load i64, ptr %160, align 8, !tbaa !22
  %162 = load i64, ptr %18, align 8, !tbaa !22
  %163 = icmp eq i64 %161, %162
  br i1 %163, label %164, label %165

164:                                              ; preds = %159
  store i32 0, ptr %10, align 4
  store i32 1, ptr %24, align 4
  br label %214

165:                                              ; preds = %159
  %166 = load ptr, ptr %20, align 8, !tbaa !9
  %167 = getelementptr inbounds nuw %struct.lzma_index_coder, ptr %166, i32 0, i32 4
  %168 = load i32, ptr %167, align 8, !tbaa !35
  %169 = load ptr, ptr %20, align 8, !tbaa !9
  %170 = getelementptr inbounds nuw %struct.lzma_index_coder, ptr %169, i32 0, i32 3
  %171 = load i64, ptr %170, align 8, !tbaa !32
  %172 = mul i64 %171, 8
  %173 = trunc i64 %172 to i32
  %174 = lshr i32 %168, %173
  %175 = and i32 %174, 255
  %176 = trunc i32 %175 to i8
  %177 = load ptr, ptr %16, align 8, !tbaa !18
  %178 = load ptr, ptr %17, align 8, !tbaa !20
  %179 = load i64, ptr %178, align 8, !tbaa !22
  %180 = getelementptr inbounds nuw i8, ptr %177, i64 %179
  store i8 %176, ptr %180, align 1, !tbaa !30
  %181 = load ptr, ptr %17, align 8, !tbaa !20
  %182 = load i64, ptr %181, align 8, !tbaa !22
  %183 = add i64 %182, 1
  store i64 %183, ptr %181, align 8, !tbaa !22
  br label %184

184:                                              ; preds = %165
  %185 = load ptr, ptr %20, align 8, !tbaa !9
  %186 = getelementptr inbounds nuw %struct.lzma_index_coder, ptr %185, i32 0, i32 3
  %187 = load i64, ptr %186, align 8, !tbaa !32
  %188 = add i64 %187, 1
  store i64 %188, ptr %186, align 8, !tbaa !32
  %189 = icmp ult i64 %188, 4
  br i1 %189, label %159, label %190, !llvm.loop !36

190:                                              ; preds = %184
  store i32 1, ptr %10, align 4
  store i32 1, ptr %24, align 4
  br label %214

191:                                              ; preds = %35
  store i32 11, ptr %10, align 4
  store i32 1, ptr %24, align 4
  br label %214

192:                                              ; preds = %132, %125, %76, %69, %39
  br label %30, !llvm.loop !38

193:                                              ; preds = %30
  br label %194

194:                                              ; preds = %193, %125, %69
  call void @llvm.lifetime.start.p0(i64 8, ptr %26) #5
  %195 = load ptr, ptr %17, align 8, !tbaa !20
  %196 = load i64, ptr %195, align 8, !tbaa !22
  %197 = load i64, ptr %21, align 8, !tbaa !22
  %198 = sub i64 %196, %197
  store i64 %198, ptr %26, align 8, !tbaa !22
  %199 = load i64, ptr %26, align 8, !tbaa !22
  %200 = icmp ugt i64 %199, 0
  br i1 %200, label %201, label %212

201:                                              ; preds = %194
  %202 = load ptr, ptr %16, align 8, !tbaa !18
  %203 = load i64, ptr %21, align 8, !tbaa !22
  %204 = getelementptr inbounds nuw i8, ptr %202, i64 %203
  %205 = load i64, ptr %26, align 8, !tbaa !22
  %206 = load ptr, ptr %20, align 8, !tbaa !9
  %207 = getelementptr inbounds nuw %struct.lzma_index_coder, ptr %206, i32 0, i32 4
  %208 = load i32, ptr %207, align 8, !tbaa !35
  %209 = call i32 @lzma_crc32(ptr noundef %204, i64 noundef %205, i32 noundef %208) #6
  %210 = load ptr, ptr %20, align 8, !tbaa !9
  %211 = getelementptr inbounds nuw %struct.lzma_index_coder, ptr %210, i32 0, i32 4
  store i32 %209, ptr %211, align 8, !tbaa !35
  br label %212

212:                                              ; preds = %201, %194
  call void @llvm.lifetime.end.p0(i64 8, ptr %26) #5
  %213 = load i32, ptr %22, align 4, !tbaa !23
  store i32 %213, ptr %10, align 4
  store i32 1, ptr %24, align 4
  br label %214

214:                                              ; preds = %212, %191, %190, %164, %125, %69
  call void @llvm.lifetime.end.p0(i64 4, ptr %22) #5
  call void @llvm.lifetime.end.p0(i64 8, ptr %21) #5
  call void @llvm.lifetime.end.p0(i64 8, ptr %20) #5
  %215 = load i32, ptr %10, align 4
  ret i32 %215
}