; Function Attrs: nounwind uwtable
define internal i32 @index_encode(ptr noundef %0, ptr readnone captures(none) %1, ptr noalias readnone captures(none) %2, ptr noalias readnone captures(none) %3, i64 %4, ptr noalias noundef %5, ptr noalias noundef %6, i64 noundef %7, i32 %8) #0 {
  %10 = load i64, ptr %6, align 8, !tbaa !23
  %11 = icmp ult i64 %10, %7
  br i1 %11, label %.lr.ph, label %.loopexit

.lr.ph:                                           ; preds = %9
  %12 = getelementptr inbounds nuw i8, ptr %0, i64 320
  %13 = getelementptr inbounds nuw i8, ptr %0, i64 16
  %14 = getelementptr inbounds nuw i8, ptr %0, i64 8
  %.pre = load i32, ptr %0, align 8, !tbaa !13
  br label %15

15:                                               ; preds = %.lr.ph, %66
  %16 = phi i32 [ %.pre, %.lr.ph ], [ %67, %66 ]
  %17 = phi i32 [ %.pre, %.lr.ph ], [ %68, %66 ]
  %.promoted = phi i64 [ %10, %.lr.ph ], [ %69, %66 ]
  %.fr = freeze i32 %16
  switch i32 %17, label %.loopexit [
    i32 0, label %18
    i32 1, label %21
    i32 4, label %25
    i32 2, label %31
    i32 3, label %31
    i32 5, label %40
    i32 6, label %.loopexit90
  ]

18:                                               ; preds = %15
  %19 = getelementptr inbounds nuw i8, ptr %5, i64 %.promoted
  store i8 0, ptr %19, align 1, !tbaa !24
  %20 = add nuw i64 %.promoted, 1
  store i64 %20, ptr %6, align 8, !tbaa !23
  store i32 1, ptr %0, align 8, !tbaa !13
  br label %66

21:                                               ; preds = %15
  %22 = load ptr, ptr %14, align 8, !tbaa !20
  %23 = tail call i64 @lzma_index_block_count(ptr noundef %22) #6
  %24 = tail call i32 @lzma_vli_encode(i64 noundef %23, ptr noundef nonnull %12, ptr noundef %5, ptr noundef nonnull %6, i64 noundef %7) #5
  %.not76 = icmp eq i32 %24, 1
  br i1 %.not76, label %.thread, label %._crit_edge

.thread:                                          ; preds = %21
  store i64 0, ptr %12, align 8, !tbaa !21
  store i32 4, ptr %0, align 8, !tbaa !13
  br label %66

25:                                               ; preds = %15
  %26 = tail call zeroext i8 @lzma_index_iter_next(ptr noundef nonnull %13, i32 noundef 2) #5
  %.not74 = icmp eq i8 %26, 0
  br i1 %.not74, label %.thread103, label %27

27:                                               ; preds = %25
  %28 = load ptr, ptr %14, align 8, !tbaa !20
  %29 = tail call i32 @lzma_index_padding_size(ptr noundef %28) #5
  %30 = zext i32 %29 to i64
  store i64 %30, ptr %12, align 8, !tbaa !21
  store i32 5, ptr %0, align 8, !tbaa !13
  br label %66

.thread103:                                       ; preds = %25
  store i32 2, ptr %0, align 8, !tbaa !13
  br label %33

31:                                               ; preds = %15, %15
  %32 = icmp eq i32 %.fr, 2
  br i1 %32, label %33, label %34

33:                                               ; preds = %.thread103, %31
  br label %34

34:                                               ; preds = %31, %33
  %35 = phi i64 [ 192, %33 ], [ 184, %31 ]
  %.in = getelementptr inbounds nuw i8, ptr %0, i64 %35
  %36 = load i64, ptr %.in, align 8, !tbaa !23
  %37 = tail call i32 @lzma_vli_encode(i64 noundef %36, ptr noundef nonnull %12, ptr noundef %5, ptr noundef nonnull %6, i64 noundef %7) #5
  %.not75 = icmp eq i32 %37, 1
  br i1 %.not75, label %.thread84, label %._crit_edge

.thread84:                                        ; preds = %34
  store i64 0, ptr %12, align 8, !tbaa !21
  %38 = load i32, ptr %0, align 8, !tbaa !13
  %39 = add i32 %38, 1
  store i32 %39, ptr %0, align 8, !tbaa !13
  br label %66

40:                                               ; preds = %15
  %41 = load i64, ptr %12, align 8, !tbaa !21
  %.not = icmp eq i64 %41, 0
  br i1 %.not, label %46, label %42

42:                                               ; preds = %40
  %43 = add i64 %41, -1
  store i64 %43, ptr %12, align 8, !tbaa !21
  %44 = add nuw i64 %.promoted, 1
  store i64 %44, ptr %6, align 8, !tbaa !23
  %45 = getelementptr inbounds nuw i8, ptr %5, i64 %.promoted
  store i8 0, ptr %45, align 1, !tbaa !24
  br label %66

46:                                               ; preds = %40
  %47 = getelementptr inbounds nuw i8, ptr %5, i64 %10
  %48 = sub i64 %.promoted, %10
  %49 = getelementptr inbounds nuw i8, ptr %0, i64 328
  %50 = load i32, ptr %49, align 8, !tbaa !22
  %51 = tail call i32 @lzma_crc32(ptr noundef %47, i64 noundef %48, i32 noundef %50) #6
  store i32 %51, ptr %49, align 8, !tbaa !22
  store i32 6, ptr %0, align 8, !tbaa !13
  br label %.loopexit90

.loopexit90:                                      ; preds = %15, %46
  %52 = getelementptr inbounds nuw i8, ptr %0, i64 328
  br label %53

53:                                               ; preds = %56, %.loopexit90
  %54 = phi i64 [ %63, %56 ], [ %.promoted, %.loopexit90 ]
  %55 = icmp eq i64 %54, %7
  br i1 %55, label %.loopexit, label %56

56:                                               ; preds = %53
  %57 = load i32, ptr %52, align 8, !tbaa !22
  %58 = load i64, ptr %12, align 8, !tbaa !21
  %.tr = trunc i64 %58 to i32
  %59 = shl i32 %.tr, 3
  %60 = lshr i32 %57, %59
  %61 = trunc i32 %60 to i8
  %62 = getelementptr inbounds nuw i8, ptr %5, i64 %54
  store i8 %61, ptr %62, align 1, !tbaa !24
  %63 = add i64 %54, 1
  store i64 %63, ptr %6, align 8, !tbaa !23
  %64 = add i64 %58, 1
  store i64 %64, ptr %12, align 8, !tbaa !21
  %65 = icmp ult i64 %64, 4
  br i1 %65, label %53, label %.loopexit, !llvm.loop !25

66:                                               ; preds = %.thread84, %.thread, %42, %27, %18
  %67 = phi i32 [ %39, %.thread84 ], [ 4, %.thread ], [ %.fr, %42 ], [ 5, %27 ], [ 1, %18 ]
  %68 = phi i32 [ %39, %.thread84 ], [ 4, %.thread ], [ 5, %42 ], [ 5, %27 ], [ 1, %18 ]
  %69 = load i64, ptr %6, align 8, !tbaa !23
  %70 = icmp ult i64 %69, %7
  br i1 %70, label %15, label %._crit_edge, !llvm.loop !27

._crit_edge:                                      ; preds = %66, %21, %34
  %.3.ph = phi i32 [ 0, %66 ], [ %24, %21 ], [ %37, %34 ]
  %.pre102 = load i64, ptr %6, align 8, !tbaa !23
  %.not77 = icmp eq i64 %.pre102, %10
  br i1 %.not77, label %.loopexit, label %71

71:                                               ; preds = %._crit_edge
  %72 = sub i64 %.pre102, %10
  %73 = getelementptr inbounds nuw i8, ptr %5, i64 %10
  %74 = getelementptr inbounds nuw i8, ptr %0, i64 328
  %75 = load i32, ptr %74, align 8, !tbaa !22
  %76 = tail call i32 @lzma_crc32(ptr noundef %73, i64 noundef %72, i32 noundef %75) #6
  store i32 %76, ptr %74, align 8, !tbaa !22
  br label %.loopexit

.loopexit:                                        ; preds = %15, %56, %53, %9, %._crit_edge, %71
  %.0 = phi i32 [ %.3.ph, %71 ], [ %.3.ph, %._crit_edge ], [ 0, %9 ], [ 1, %56 ], [ 0, %53 ], [ 11, %15 ]
  ret i32 %.0
}